target datalayout = "e-m:e-p270:32:32-p271:32:32-p272:64:64-i64:64-i128:128-f80:128-n8:16:32:64-S128"
target triple = "x86_64-pc-linux-gnu"

%"class.std::__cxx11::basic_string" = type { %"struct.std::__cxx11::basic_string<char>::_Alloc_hider", i64, %union.anon }
%"struct.std::__cxx11::basic_string<char>::_Alloc_hider" = type { ptr }
%union.anon = type { i64, [8 x i8] }
%"class.std::unique_ptr.34" = type { %"struct.std::__uniq_ptr_data.35" }
%"struct.std::__uniq_ptr_data.35" = type { %"class.std::__uniq_ptr_impl.36" }
%"class.std::__uniq_ptr_impl.36" = type { %"class.std::tuple.37" }
%"class.std::tuple.37" = type { %"struct.std::_Tuple_impl.38" }
%"struct.std::_Tuple_impl.38" = type { %"struct.std::_Head_base.41" }
%"struct.std::_Head_base.41" = type { ptr }
%"class.osgeo::proj::DiskChunkCache" = type { ptr, %"class.std::__cxx11::basic_string", ptr, %"class.std::unique_ptr.34" }
%"class.std::unique_ptr.48" = type { %"struct.std::__uniq_ptr_data.49" }
%"struct.std::__uniq_ptr_data.49" = type { %"class.std::__uniq_ptr_impl.50" }
%"class.std::__uniq_ptr_impl.50" = type { %"class.std::tuple.51" }
%"class.std::tuple.51" = type { %"struct.std::_Tuple_impl.52" }
%"struct.std::_Tuple_impl.52" = type { %"struct.std::_Head_base.55" }
%"struct.std::_Head_base.55" = type { ptr }
%"class.osgeo::proj::SQLiteStatement" = type { ptr, i32, i32 }

@.str.3 = private unnamed_addr constant [3 x i8] c"%s\00", align 1
@.str.35 = private unnamed_addr constant [47 x i8] c"UPDATE linked_chunks SET prev = ? WHERE id = ?\00", align 1

; Function Attrs: mustprogress nounwind uwtable
define linkonce_odr hidden noundef nonnull align 8 dereferenceable(8) ptr @_ZNSt10_Head_baseILm0EPN5osgeo4proj15SQLiteStatementELb0EE7_M_headERKS4_(ptr noundef nonnull align 8 dereferenceable(8) %0) #6 comdat align 2 {
  %2 = alloca ptr, align 8
  store ptr %0, ptr %2, align 8, !tbaa !422
  %3 = load ptr, ptr %2, align 8, !tbaa !422
  %4 = getelementptr inbounds nuw %"struct.std::_Head_base.55", ptr %3, i32 0, i32 0
  ret ptr %4
}

; Function Attrs: mustprogress nounwind uwtable
define linkonce_odr hidden noundef nonnull align 8 dereferenceable(8) ptr @_ZNSt11_Tuple_implILm0EJPN5osgeo4proj15SQLiteStatementESt14default_deleteIS2_EEE7_M_headERKS6_(ptr noundef nonnull align 8 dereferenceable(8) %0) #6 comdat align 2 {
  %2 = alloca ptr, align 8
  store ptr %0, ptr %2, align 8, !tbaa !420
  %3 = load ptr, ptr %2, align 8, !tbaa !420
  %4 = call noundef nonnull align 8 dereferenceable(8) ptr @_ZNSt10_Head_baseILm0EPN5osgeo4proj15SQLiteStatementELb0EE7_M_headERKS4_(ptr noundef nonnull align 8 dereferenceable(8) %3) #4
  ret ptr %4
}

; Function Attrs: mustprogress nounwind uwtable
define linkonce_odr hidden noundef nonnull align 8 dereferenceable(8) ptr @_ZSt12__get_helperILm0EPN5osgeo4proj15SQLiteStatementEJSt14default_deleteIS2_EEERKT0_RKSt11_Tuple_implIXT_EJS6_DpT1_EE(ptr noundef nonnull align 8 dereferenceable(8) %0) #6 comdat {
  %2 = alloca ptr, align 8
  store ptr %0, ptr %2, align 8, !tbaa !420
  %3 = load ptr, ptr %2, align 8, !tbaa !420
  %4 = call noundef nonnull align 8 dereferenceable(8) ptr @_ZNSt11_Tuple_implILm0EJPN5osgeo4proj15SQLiteStatementESt14default_deleteIS2_EEE7_M_headERKS6_(ptr noundef nonnull align 8 dereferenceable(8) %3) #4
  ret ptr %4
}

; Function Attrs: mustprogress nounwind uwtable
define linkonce_odr hidden noundef nonnull align 8 dereferenceable(8) ptr @_ZSt3getILm0EJPN5osgeo4proj15SQLiteStatementESt14default_deleteIS2_EEERKNSt13tuple_elementIXT_ESt5tupleIJDpT0_EEE4typeERKSA_(ptr noundef nonnull align 8 dereferenceable(8) %0) #6 comdat {
  %2 = alloca ptr, align 8
  store ptr %0, ptr %2, align 8, !tbaa !418
  %3 = load ptr, ptr %2, align 8, !tbaa !418
  %4 = call noundef nonnull align 8 dereferenceable(8) ptr @_ZSt12__get_helperILm0EPN5osgeo4proj15SQLiteStatementEJSt14default_deleteIS2_EEERKT0_RKSt11_Tuple_implIXT_EJS6_DpT1_EE(ptr noundef nonnull align 8 dereferenceable(8) %3) #4
  ret ptr %4
}

; Function Attrs: mustprogress nounwind uwtable
define linkonce_odr hidden noundef ptr @_ZNKSt15__uniq_ptr_implIN5osgeo4proj15SQLiteStatementESt14default_deleteIS2_EE6_M_ptrEv(ptr noundef nonnull align 8 dereferenceable(8) %0) #6 comdat align 2 {
  %2 = alloca ptr, align 8
  store ptr %0, ptr %2, align 8, !tbaa !414
  %3 = load ptr, ptr %2, align 8
  %4 = getelementptr inbounds nuw %"class.std::__uniq_ptr_impl.50", ptr %3, i32 0, i32 0
  %5 = call noundef nonnull align 8 dereferenceable(8) ptr @_ZSt3getILm0EJPN5osgeo4proj15SQLiteStatementESt14default_deleteIS2_EEERKNSt13tuple_elementIXT_ESt5tupleIJDpT0_EEE4typeERKSA_(ptr noundef nonnull align 8 dereferenceable(8) %4) #4
  %6 = load ptr, ptr %5, align 8, !tbaa !84
  ret ptr %6
}

; Function Attrs: mustprogress nounwind uwtable
define linkonce_odr hidden noundef ptr @_ZNKSt10unique_ptrIN5osgeo4proj15SQLiteStatementESt14default_deleteIS2_EE3getEv(ptr noundef nonnull align 8 dereferenceable(8) %0) #6 comdat align 2 {
  %2 = alloca ptr, align 8
  store ptr %0, ptr %2, align 8, !tbaa !82
  %3 = load ptr, ptr %2, align 8
  %4 = getelementptr inbounds nuw %"class.std::unique_ptr.48", ptr %3, i32 0, i32 0
  %5 = call noundef ptr @_ZNKSt15__uniq_ptr_implIN5osgeo4proj15SQLiteStatementESt14default_deleteIS2_EE6_M_ptrEv(ptr noundef nonnull align 8 dereferenceable(8) %4) #4
  ret ptr %5
}

; Function Attrs: mustprogress uwtable
define linkonce_odr hidden noundef i32 @_ZN5osgeo4proj15SQLiteStatement7executeEv(ptr noundef nonnull align 8 dereferenceable(16) %0) #5 comdat align 2 {
  %2 = alloca ptr, align 8
  store ptr %0, ptr %2, align 8, !tbaa !84
  %3 = load ptr, ptr %2, align 8
  %4 = getelementptr inbounds nuw %"class.osgeo::proj::SQLiteStatement", ptr %3, i32 0, i32 0
  %5 = load ptr, ptr %4, align 8, !tbaa !86
  %6 = call i32 @sqlite3_step(ptr noundef %5)
  ret i32 %6
}

; Function Attrs: mustprogress uwtable
define linkonce_odr hidden void @_ZN5osgeo4proj15SQLiteStatement9bindInt64Ex(ptr noundef nonnull align 8 dereferenceable(16) %0, i64 noundef %1) #5 comdat align 2 {
  %3 = alloca ptr, align 8
  %4 = alloca i64, align 8
  store ptr %0, ptr %3, align 8, !tbaa !84
  store i64 %1, ptr %4, align 8, !tbaa !77
  %5 = load ptr, ptr %3, align 8
  %6 = getelementptr inbounds nuw %"class.osgeo::proj::SQLiteStatement", ptr %5, i32 0, i32 0
  %7 = load ptr, ptr %6, align 8, !tbaa !86
  %8 = getelementptr inbounds nuw %"class.osgeo::proj::SQLiteStatement", ptr %5, i32 0, i32 1
  %9 = load i32, ptr %8, align 8, !tbaa !95
  %10 = load i64, ptr %4, align 8, !tbaa !77
  %11 = call i32 @sqlite3_bind_int64(ptr noundef %7, i32 noundef %9, i64 noundef %10)
  %12 = getelementptr inbounds nuw %"class.osgeo::proj::SQLiteStatement", ptr %5, i32 0, i32 1
  %13 = load i32, ptr %12, align 8, !tbaa !95
  %14 = add nsw i32 %13, 1
  store i32 %14, ptr %12, align 8, !tbaa !95
  ret void
}

; Function Attrs: mustprogress nounwind uwtable
define linkonce_odr hidden noundef ptr @_ZNKSt10unique_ptrIN5osgeo4proj15SQLiteStatementESt14default_deleteIS2_EEptEv(ptr noundef nonnull align 8 dereferenceable(8) %0) #6 comdat align 2 {
  %2 = alloca ptr, align 8
  store ptr %0, ptr %2, align 8, !tbaa !82
  %3 = load ptr, ptr %2, align 8
  %4 = call noundef ptr @_ZNKSt10unique_ptrIN5osgeo4proj15SQLiteStatementESt14default_deleteIS2_EE3getEv(ptr noundef nonnull align 8 dereferenceable(8) %3) #4
  ret ptr %4
}

; Function Attrs: mustprogress nounwind uwtable
define linkonce_odr hidden noundef zeroext i1 @_ZNKSt10unique_ptrIN5osgeo4proj15SQLiteStatementESt14default_deleteIS2_EEcvbEv(ptr noundef nonnull align 8 dereferenceable(8) %0) #6 comdat align 2 {
  %2 = alloca ptr, align 8
  store ptr %0, ptr %2, align 8, !tbaa !82
  %3 = load ptr, ptr %2, align 8
  %4 = call noundef ptr @_ZNKSt10unique_ptrIN5osgeo4proj15SQLiteStatementESt14default_deleteIS2_EE3getEv(ptr noundef nonnull align 8 dereferenceable(8) %3) #4
  %5 = icmp eq ptr %4, null
  %6 = select i1 %5, i1 false, i1 true
  ret i1 %6
}

; Function Attrs: mustprogress uwtable
define hidden noundef zeroext i1 @_ZN5osgeo4proj14DiskChunkCache12move_to_headEx(ptr noundef nonnull align 8 dereferenceable(56) %0, i64 noundef %1) #5 align 2 personality ptr @__gxx_personality_v0 {
  %3 = alloca i1, align 1
  %4 = alloca ptr, align 8
  %5 = alloca i64, align 8
  %6 = alloca i64, align 8
  %7 = alloca i64, align 8
  %8 = alloca i64, align 8
  %9 = alloca i64, align 8
  %10 = alloca i64, align 8
  %11 = alloca i32, align 4
  %12 = alloca %"class.std::unique_ptr.48", align 8
  %13 = alloca ptr, align 8
  %14 = alloca i32, align 4
  %15 = alloca i32, align 4
  store ptr %0, ptr %4, align 8, !tbaa !49
  store i64 %1, ptr %5, align 8, !tbaa !77
  %16 = load ptr, ptr %4, align 8
  call void @llvm.lifetime.start.p0(i64 8, ptr %6) #4
  store i64 0, ptr %6, align 8, !tbaa !77
  call void @llvm.lifetime.start.p0(i64 8, ptr %7) #4
  store i64 0, ptr %7, align 8, !tbaa !77
  call void @llvm.lifetime.start.p0(i64 8, ptr %8) #4
  store i64 0, ptr %8, align 8, !tbaa !77
  call void @llvm.lifetime.start.p0(i64 8, ptr %9) #4
  store i64 0, ptr %9, align 8, !tbaa !77
  call void @llvm.lifetime.start.p0(i64 8, ptr %10) #4
  store i64 0, ptr %10, align 8, !tbaa !77
  %17 = load i64, ptr %5, align 8, !tbaa !77
  %18 = call noundef zeroext i1 @_ZN5osgeo4proj14DiskChunkCache9get_linksExRxS2_S2_S2_S2_(ptr noundef nonnull align 8 dereferenceable(56) %16, i64 noundef %17, ptr noundef nonnull align 8 dereferenceable(8) %6, ptr noundef nonnull align 8 dereferenceable(8) %7, ptr noundef nonnull align 8 dereferenceable(8) %8, ptr noundef nonnull align 8 dereferenceable(8) %9, ptr noundef nonnull align 8 dereferenceable(8) %10)
  br i1 %18, label %20, label %19

19:                                               ; preds = %2
  store i1 false, ptr %3, align 1
  store i32 1, ptr %11, align 4
  br label %88

20:                                               ; preds = %2
  %21 = load i64, ptr %6, align 8, !tbaa !77
  %22 = load i64, ptr %9, align 8, !tbaa !77
  %23 = icmp eq i64 %21, %22
  br i1 %23, label %24, label %25

24:                                               ; preds = %20
  store i1 true, ptr %3, align 1
  store i32 1, ptr %11, align 4
  br label %88

25:                                               ; preds = %20
  %26 = load i64, ptr %7, align 8, !tbaa !77
  %27 = load i64, ptr %8, align 8, !tbaa !77
  %28 = call noundef zeroext i1 @_ZN5osgeo4proj14DiskChunkCache35update_links_of_prev_and_next_linksExx(ptr noundef nonnull align 8 dereferenceable(56) %16, i64 noundef %26, i64 noundef %27)
  br i1 %28, label %30, label %29

29:                                               ; preds = %25
  store i1 false, ptr %3, align 1
  store i32 1, ptr %11, align 4
  br label %88

30:                                               ; preds = %25
  %31 = load i64, ptr %9, align 8, !tbaa !77
  %32 = icmp ne i64 %31, 0
  br i1 %32, label %33, label %70

33:                                               ; preds = %30
  call void @llvm.lifetime.start.p0(i64 8, ptr %12) #4
  call void @_ZN5osgeo4proj14DiskChunkCache7prepareEPKc(ptr dead_on_unwind writable sret(%"class.std::unique_ptr.48") align 8 %12, ptr noundef nonnull align 8 dereferenceable(56) %16, ptr noundef @.str.35)
  %34 = call noundef zeroext i1 @_ZNKSt10unique_ptrIN5osgeo4proj15SQLiteStatementESt14default_deleteIS2_EEcvbEv(ptr noundef nonnull align 8 dereferenceable(8) %12) #4
  br i1 %34, label %36, label %35

35:                                               ; preds = %33
  store i1 false, ptr %3, align 1
  store i32 1, ptr %11, align 4
  br label %66

36:                                               ; preds = %33
  %37 = call noundef ptr @_ZNKSt10unique_ptrIN5osgeo4proj15SQLiteStatementESt14default_deleteIS2_EEptEv(ptr noundef nonnull align 8 dereferenceable(8) %12) #4
  %38 = load i64, ptr %6, align 8, !tbaa !77
  invoke void @_ZN5osgeo4proj15SQLiteStatement9bindInt64Ex(ptr noundef nonnull align 8 dereferenceable(16) %37, i64 noundef %38)
          to label %39 unwind label %56

39:                                               ; preds = %36
  %40 = call noundef ptr @_ZNKSt10unique_ptrIN5osgeo4proj15SQLiteStatementESt14default_deleteIS2_EEptEv(ptr noundef nonnull align 8 dereferenceable(8) %12) #4
  %41 = load i64, ptr %9, align 8, !tbaa !77
  invoke void @_ZN5osgeo4proj15SQLiteStatement9bindInt64Ex(ptr noundef nonnull align 8 dereferenceable(16) %40, i64 noundef %41)
          to label %42 unwind label %56

42:                                               ; preds = %39
  call void @llvm.lifetime.start.p0(i64 4, ptr %15) #4
  %43 = call noundef ptr @_ZNKSt10unique_ptrIN5osgeo4proj15SQLiteStatementESt14default_deleteIS2_EEptEv(ptr noundef nonnull align 8 dereferenceable(8) %12) #4
  %44 = invoke noundef i32 @_ZN5osgeo4proj15SQLiteStatement7executeEv(ptr noundef nonnull align 8 dereferenceable(16) %43)
          to label %45 unwind label %60

45:                                               ; preds = %42
  store i32 %44, ptr %15, align 4, !tbaa !62
  %46 = load i32, ptr %15, align 4, !tbaa !62
  %47 = icmp ne i32 %46, 101
  br i1 %47, label %48, label %64

48:                                               ; preds = %45
  %49 = getelementptr inbounds nuw %"class.osgeo::proj::DiskChunkCache", ptr %16, i32 0, i32 0
  %50 = load ptr, ptr %49, align 8, !tbaa !51
  %51 = getelementptr inbounds nuw %"class.osgeo::proj::DiskChunkCache", ptr %16, i32 0, i32 2
  %52 = load ptr, ptr %51, align 8, !tbaa !61
  %53 = invoke ptr @sqlite3_errmsg(ptr noundef %52)
          to label %54 unwind label %60

54:                                               ; preds = %48
  invoke void (ptr, i32, ptr, ...) @_Z6pj_logP6pj_ctxiPKcz(ptr noundef %50, i32 noundef 1, ptr noundef @.str.3, ptr noundef %53)
          to label %55 unwind label %60

55:                                               ; preds = %54
  store i1 false, ptr %3, align 1
  store i32 1, ptr %11, align 4
  br label %65

56:                                               ; preds = %39, %36
  %57 = landingpad { ptr, i32 }
          cleanup
  %58 = extractvalue { ptr, i32 } %57, 0
  store ptr %58, ptr %13, align 8
  %59 = extractvalue { ptr, i32 } %57, 1
  store i32 %59, ptr %14, align 4
  br label %69

60:                                               ; preds = %54, %48, %42
  %61 = landingpad { ptr, i32 }
          cleanup
  %62 = extractvalue { ptr, i32 } %61, 0
  store ptr %62, ptr %13, align 8
  %63 = extractvalue { ptr, i32 } %61, 1
  store i32 %63, ptr %14, align 4
  call void @llvm.lifetime.end.p0(i64 4, ptr %15) #4
  br label %69

64:                                               ; preds = %45
  store i32 0, ptr %11, align 4
  br label %65

65:                                               ; preds = %64, %55
  call void @llvm.lifetime.end.p0(i64 4, ptr %15) #4
  br label %66

66:                                               ; preds = %65, %35
  call void @_ZNSt10unique_ptrIN5osgeo4proj15SQLiteStatementESt14default_deleteIS2_EED2Ev(ptr noundef nonnull align 8 dereferenceable(8) %12) #4
  call void @llvm.lifetime.end.p0(i64 8, ptr %12) #4
  %67 = load i32, ptr %11, align 4
  switch i32 %67, label %88 [
    i32 0, label %68
  ]

68:                                               ; preds = %66
  br label %70

69:                                               ; preds = %60, %56
  call void @_ZNSt10unique_ptrIN5osgeo4proj15SQLiteStatementESt14default_deleteIS2_EED2Ev(ptr noundef nonnull align 8 dereferenceable(8) %12) #4
  call void @llvm.lifetime.end.p0(i64 8, ptr %12) #4
  call void @llvm.lifetime.end.p0(i64 8, ptr %10) #4
  call void @llvm.lifetime.end.p0(i64 8, ptr %9) #4
  call void @llvm.lifetime.end.p0(i64 8, ptr %8) #4
  call void @llvm.lifetime.end.p0(i64 8, ptr %7) #4
  call void @llvm.lifetime.end.p0(i64 8, ptr %6) #4
  br label %90

70:                                               ; preds = %68, %30
  %71 = load i64, ptr %6, align 8, !tbaa !77
  %72 = load i64, ptr %9, align 8, !tbaa !77
  %73 = call noundef zeroext i1 @_ZN5osgeo4proj14DiskChunkCache20update_linked_chunksExxx(ptr noundef nonnull align 8 dereferenceable(56) %16, i64 noundef %71, i64 noundef 0, i64 noundef %72)
  br i1 %73, label %74, label %86

74:                                               ; preds = %70
  %75 = load i64, ptr %6, align 8, !tbaa !77
  %76 = load i64, ptr %6, align 8, !tbaa !77
  %77 = load i64, ptr %10, align 8, !tbaa !77
  %78 = icmp eq i64 %76, %77
  br i1 %78, label %79, label %81

79:                                               ; preds = %74
  %80 = load i64, ptr %7, align 8, !tbaa !77
  br label %83

81:                                               ; preds = %74
  %82 = load i64, ptr %10, align 8, !tbaa !77
  br label %83

83:                                               ; preds = %81, %79
  %84 = phi i64 [ %80, %79 ], [ %82, %81 ]
  %85 = call noundef zeroext i1 @_ZN5osgeo4proj14DiskChunkCache30update_linked_chunks_head_tailExx(ptr noundef nonnull align 8 dereferenceable(56) %16, i64 noundef %75, i64 noundef %84)
  br label %86

86:                                               ; preds = %83, %70
  %87 = phi i1 [ false, %70 ], [ %85, %83 ]
  store i1 %87, ptr %3, align 1
  store i32 1, ptr %11, align 4
  br label %88

88:                                               ; preds = %86, %66, %29, %24, %19
  call void @llvm.lifetime.end.p0(i64 8, ptr %10) #4
  call void @llvm.lifetime.end.p0(i64 8, ptr %9) #4
  call void @llvm.lifetime.end.p0(i64 8, ptr %8) #4
  call void @llvm.lifetime.end.p0(i64 8, ptr %7) #4
  call void @llvm.lifetime.end.p0(i64 8, ptr %6) #4
  %89 = load i1, ptr %3, align 1
  ret i1 %89

90:                                               ; preds = %69
  %91 = load ptr, ptr %13, align 8
  %92 = load i32, ptr %14, align 4
  %93 = insertvalue { ptr, i32 } poison, ptr %91, 0
  %94 = insertvalue { ptr, i32 } %93, i32 %92, 1
  resume { ptr, i32 } %94
}